ARM GAS  C:\Users\egarr\AppData\Local\Temp\ccFcDPmm.s 			page 1


   1              		.syntax unified
   2              		.cpu cortex-m3
   3              		.fpu softvfp
   4              		.eabi_attribute 20, 1
   5              		.eabi_attribute 21, 1
   6              		.eabi_attribute 23, 3
   7              		.eabi_attribute 24, 1
   8              		.eabi_attribute 25, 1
   9              		.eabi_attribute 26, 1
  10              		.eabi_attribute 30, 1
  11              		.eabi_attribute 34, 1
  12              		.eabi_attribute 18, 4
  13              		.thumb
  14              		.syntax unified
  15              		.file	"main.c"
  16              		.text
  17              	.Ltext0:
  18              		.cfi_sections	.debug_frame
  19              		.section	.text.byteReceived,"ax",%progbits
  20              		.align	2
  21              		.global	byteReceived
  22              		.thumb
  23              		.thumb_func
  24              		.type	byteReceived, %function
  25              	byteReceived:
  26              	.LFB64:
  27              		.file 1 "main.c"
   1:main.c        **** /* ========================================
   2:main.c        ****  *
   3:main.c        ****  * Copyright YOUR COMPANY, THE YEAR
   4:main.c        ****  * All Rights Reserved
   5:main.c        ****  * UNPUBLISHED, LICENSED SOFTWARE.
   6:main.c        ****  *
   7:main.c        ****  * CONFIDENTIAL AND PROPRIETARY INFORMATION
   8:main.c        ****  * WHICH IS THE PROPERTY OF your company.
   9:main.c        ****  *
  10:main.c        ****  * ========================================
  11:main.c        **** */
  12:main.c        **** #include "project.h"
  13:main.c        **** #include <string.h>
  14:main.c        **** 
  15:main.c        **** #define numOfChars  79
  16:main.c        **** #define write       0
  17:main.c        **** #define read        1
  18:main.c        **** 
  19:main.c        **** CY_ISR_PROTO(byteReceived);
  20:main.c        **** void printInstructions();
  21:main.c        **** void parseInput();
  22:main.c        **** void readWriteMem();
  23:main.c        **** 
  24:main.c        **** uint8 currentMemLocation;
  25:main.c        **** uint16 memLocation;
  26:main.c        **** 
  27:main.c        **** uint8 directionRW;
  28:main.c        **** uint8 chipSelect;
  29:main.c        **** 
  30:main.c        **** uint8 group1Address =   80;
ARM GAS  C:\Users\egarr\AppData\Local\Temp\ccFcDPmm.s 			page 2


  31:main.c        **** uint8 chip1Address  =    6;
  32:main.c        **** uint8 chip2Address  =    4;
  33:main.c        **** 
  34:main.c        **** uint8 address;
  35:main.c        **** 
  36:main.c        **** 
  37:main.c        **** 
  38:main.c        **** uint8 format;
  39:main.c        **** 
  40:main.c        **** uint8 readNumBytes; 
  41:main.c        **** uint8 writeNumBytes;
  42:main.c        **** 
  43:main.c        **** uint8 data[numOfChars];
  44:main.c        **** uint8 writeData[numOfChars] = "";
  45:main.c        **** uint8 readData[numOfChars];
  46:main.c        **** 
  47:main.c        **** uint8 addressW = 86;
  48:main.c        **** uint8 addressR = 86;
  49:main.c        **** 
  50:main.c        **** uint8 format;
  51:main.c        **** 
  52:main.c        **** 
  53:main.c        **** int updateFlag;
  54:main.c        **** int i = 0;
  55:main.c        **** int x = 0;
  56:main.c        **** int y = 0;
  57:main.c        **** int entry = 0;
  58:main.c        **** 
  59:main.c        **** char holding[numOfChars] = "";
  60:main.c        **** char input[numOfChars] = "";
  61:main.c        **** char empty[numOfChars] = "";
  62:main.c        **** char nextByte;
  63:main.c        **** 
  64:main.c        **** uint8 testAdd[1] = {0x00};
  65:main.c        **** uint8 testW[5] = {0x00,0x30,0x31,0x32, 0x33};
  66:main.c        **** uint8 testR[4] = {1,2,3,4};
  67:main.c        **** 
  68:main.c        **** int main(void)
  69:main.c        **** {
  70:main.c        ****     
  71:main.c        ****     UART_Start();
  72:main.c        ****     I2C_Start();
  73:main.c        ****     //I2C_Enable();
  74:main.c        ****     
  75:main.c        ****     printInstructions();
  76:main.c        ****     
  77:main.c        ****     isr_1_StartEx(byteReceived);
  78:main.c        ****     CyGlobalIntEnable; 
  79:main.c        ****     
  80:main.c        ****     for(;;)
  81:main.c        ****     {
  82:main.c        ****         if(updateFlag){
  83:main.c        ****             parseInput();
  84:main.c        ****             readWriteMem();
  85:main.c        **** 
  86:main.c        **** 
  87:main.c        ****             updateFlag = 0;
ARM GAS  C:\Users\egarr\AppData\Local\Temp\ccFcDPmm.s 			page 3


  88:main.c        ****         }
  89:main.c        ****     }
  90:main.c        **** }
  91:main.c        **** 
  92:main.c        **** CY_ISR(byteReceived){
  28              		.loc 1 92 0
  29              		.cfi_startproc
  30              		@ args = 0, pretend = 0, frame = 0
  31              		@ frame_needed = 0, uses_anonymous_args = 0
  32 0000 08B5     		push	{r3, lr}
  33              		.cfi_def_cfa_offset 8
  34              		.cfi_offset 3, -8
  35              		.cfi_offset 14, -4
  93:main.c        ****     //gets incoming byte from UART and stores it
  94:main.c        ****     nextByte = UART_GetChar(); 
  36              		.loc 1 94 0
  37 0002 FFF7FEFF 		bl	UART_GetChar
  38              	.LVL0:
  39 0006 334B     		ldr	r3, .L11
  40 0008 1870     		strb	r0, [r3]
  95:main.c        ****     //if the byte is a printable character & the string isn't full
  96:main.c        ****     if(nextByte > 31 && nextByte < 127 && x < numOfChars){
  41              		.loc 1 96 0
  42 000a A0F12003 		sub	r3, r0, #32
  43 000e DBB2     		uxtb	r3, r3
  44 0010 5E2B     		cmp	r3, #94
  45 0012 0ED8     		bhi	.L2
  46              		.loc 1 96 0 is_stmt 0 discriminator 1
  47 0014 304B     		ldr	r3, .L11+4
  48 0016 1B68     		ldr	r3, [r3]
  49 0018 4E2B     		cmp	r3, #78
  50 001a 0ADC     		bgt	.L2
  97:main.c        ****         //echo character back to host computer 
  98:main.c        ****         UART_PutChar(nextByte);
  51              		.loc 1 98 0 is_stmt 1
  52 001c FFF7FEFF 		bl	UART_PutChar
  53              	.LVL1:
  99:main.c        ****         //store character into an input buffer
 100:main.c        ****         input[x] = nextByte;
  54              		.loc 1 100 0
  55 0020 2D4A     		ldr	r2, .L11+4
  56 0022 1368     		ldr	r3, [r2]
  57 0024 D118     		adds	r1, r2, r3
  58 0026 2B48     		ldr	r0, .L11
  59 0028 0078     		ldrb	r0, [r0]	@ zero_extendqisi2
  60 002a 0871     		strb	r0, [r1, #4]
 101:main.c        ****         //increment to next buffer location
 102:main.c        ****         x++;
  61              		.loc 1 102 0
  62 002c 0133     		adds	r3, r3, #1
  63 002e 1360     		str	r3, [r2]
  64 0030 08BD     		pop	{r3, pc}
  65              	.L2:
 103:main.c        ****     }
 104:main.c        ****     
 105:main.c        ****     //if byte is non printable
 106:main.c        ****     else{
ARM GAS  C:\Users\egarr\AppData\Local\Temp\ccFcDPmm.s 			page 4


 107:main.c        ****         //if the byte is a delete perform rubout sequence
 108:main.c        ****         if(nextByte == 0x7F && x > 0){
  66              		.loc 1 108 0
  67 0032 7F28     		cmp	r0, #127
  68 0034 14D1     		bne	.L4
  69              		.loc 1 108 0 is_stmt 0 discriminator 1
  70 0036 284B     		ldr	r3, .L11+4
  71 0038 1B68     		ldr	r3, [r3]
  72 003a 002B     		cmp	r3, #0
  73 003c 10DD     		ble	.L4
 109:main.c        ****             UART_PutChar(0x08);
  74              		.loc 1 109 0 is_stmt 1
  75 003e 0820     		movs	r0, #8
  76 0040 FFF7FEFF 		bl	UART_PutChar
  77              	.LVL2:
 110:main.c        ****             UART_PutChar(0x20);
  78              		.loc 1 110 0
  79 0044 2020     		movs	r0, #32
  80 0046 FFF7FEFF 		bl	UART_PutChar
  81              	.LVL3:
 111:main.c        ****             UART_PutChar(0x08);
  82              		.loc 1 111 0
  83 004a 0820     		movs	r0, #8
  84 004c FFF7FEFF 		bl	UART_PutChar
  85              	.LVL4:
 112:main.c        ****             //sets input buffer location back 1 to reflect host readout
 113:main.c        ****             x--;     
  86              		.loc 1 113 0
  87 0050 214A     		ldr	r2, .L11+4
  88 0052 1368     		ldr	r3, [r2]
  89 0054 013B     		subs	r3, r3, #1
  90 0056 1360     		str	r3, [r2]
 114:main.c        ****             //replaces deleted character with null
 115:main.c        ****             input[x] = 0;
  91              		.loc 1 115 0
  92 0058 1344     		add	r3, r3, r2
  93 005a 0022     		movs	r2, #0
  94 005c 1A71     		strb	r2, [r3, #4]
  95 005e 08BD     		pop	{r3, pc}
  96              	.L4:
 116:main.c        ****         }
 117:main.c        ****         
 118:main.c        ****         //if carriage return (enter) is sent
 119:main.c        ****         else if(nextByte == 0x0D){
  97              		.loc 1 119 0
  98 0060 0D28     		cmp	r0, #13
  99 0062 32D1     		bne	.L5
 120:main.c        ****             //new line and carriage return
 121:main.c        ****             UART_PutString("\n");
 100              		.loc 1 121 0
 101 0064 1D48     		ldr	r0, .L11+8
 102 0066 FFF7FEFF 		bl	UART_PutString
 103              	.LVL5:
 122:main.c        ****             UART_PutChar(nextByte);
 104              		.loc 1 122 0
 105 006a 1A4B     		ldr	r3, .L11
 106 006c 1878     		ldrb	r0, [r3]	@ zero_extendqisi2
ARM GAS  C:\Users\egarr\AppData\Local\Temp\ccFcDPmm.s 			page 5


 107 006e FFF7FEFF 		bl	UART_PutChar
 108              	.LVL6:
 123:main.c        ****             
 124:main.c        ****             //add carriage return deliminator to input buffer
 125:main.c        ****             input[x] = 0x0D;
 109              		.loc 1 125 0
 110 0072 194B     		ldr	r3, .L11+4
 111 0074 1A68     		ldr	r2, [r3]
 112 0076 1A44     		add	r2, r2, r3
 113 0078 0D21     		movs	r1, #13
 114 007a 1171     		strb	r1, [r2, #4]
 126:main.c        ****             
 127:main.c        ****             //store input array in a holding array
 128:main.c        ****             for (i = 0; i < numOfChars; i++){
 115              		.loc 1 128 0
 116 007c 0022     		movs	r2, #0
 117 007e 5A65     		str	r2, [r3, #84]
 118 0080 06E0     		b	.L6
 119              	.L7:
 129:main.c        ****                 holding[i] = input[i];
 120              		.loc 1 129 0 discriminator 3
 121 0082 154A     		ldr	r2, .L11+4
 122 0084 D118     		adds	r1, r2, r3
 123 0086 0879     		ldrb	r0, [r1, #4]	@ zero_extendqisi2
 124 0088 81F85800 		strb	r0, [r1, #88]
 128:main.c        ****                 holding[i] = input[i];
 125              		.loc 1 128 0 discriminator 3
 126 008c 0133     		adds	r3, r3, #1
 127 008e 5365     		str	r3, [r2, #84]
 128              	.L6:
 128:main.c        ****                 holding[i] = input[i];
 129              		.loc 1 128 0 is_stmt 0 discriminator 1
 130 0090 114B     		ldr	r3, .L11+4
 131 0092 5B6D     		ldr	r3, [r3, #84]
 132 0094 4E2B     		cmp	r3, #78
 133 0096 F4DD     		ble	.L7
 130:main.c        ****             }
 131:main.c        ****             
 132:main.c        ****             //clear input array
 133:main.c        ****             for(y = 0;y < numOfChars; y++){
 134              		.loc 1 133 0 is_stmt 1
 135 0098 0022     		movs	r2, #0
 136 009a 0F4B     		ldr	r3, .L11+4
 137 009c C3F8A820 		str	r2, [r3, #168]
 138 00a0 07E0     		b	.L8
 139              	.L9:
 134:main.c        ****                 input[y] = empty[y];
 140              		.loc 1 134 0 discriminator 3
 141 00a2 0D4A     		ldr	r2, .L11+4
 142 00a4 D118     		adds	r1, r2, r3
 143 00a6 91F8AC00 		ldrb	r0, [r1, #172]	@ zero_extendqisi2
 144 00aa 0871     		strb	r0, [r1, #4]
 133:main.c        ****                 input[y] = empty[y];
 145              		.loc 1 133 0 discriminator 3
 146 00ac 0133     		adds	r3, r3, #1
 147 00ae C2F8A830 		str	r3, [r2, #168]
 148              	.L8:
ARM GAS  C:\Users\egarr\AppData\Local\Temp\ccFcDPmm.s 			page 6


 133:main.c        ****                 input[y] = empty[y];
 149              		.loc 1 133 0 is_stmt 0 discriminator 1
 150 00b2 094B     		ldr	r3, .L11+4
 151 00b4 D3F8A830 		ldr	r3, [r3, #168]
 152 00b8 4E2B     		cmp	r3, #78
 153 00ba F2DD     		ble	.L9
 135:main.c        ****             }
 136:main.c        ****             
 137:main.c        ****             //return input buffer write location to beginning
 138:main.c        ****             x = 0;
 154              		.loc 1 138 0 is_stmt 1
 155 00bc 0022     		movs	r2, #0
 156 00be 064B     		ldr	r3, .L11+4
 157 00c0 1A60     		str	r2, [r3]
 139:main.c        ****             //set flag for action in the main code
 140:main.c        ****             updateFlag = 1;
 158              		.loc 1 140 0
 159 00c2 0122     		movs	r2, #1
 160 00c4 064B     		ldr	r3, .L11+12
 161 00c6 1A60     		str	r2, [r3]
 162 00c8 08BD     		pop	{r3, pc}
 163              	.L5:
 141:main.c        ****         }
 142:main.c        ****         
 143:main.c        ****         //if byte is not printable or if input buffer is full..
 144:main.c        ****         //or if trying to delete past 0 send bell to host computer
 145:main.c        ****         else{
 146:main.c        ****             UART_PutChar(7);
 164              		.loc 1 146 0
 165 00ca 0720     		movs	r0, #7
 166 00cc FFF7FEFF 		bl	UART_PutChar
 167              	.LVL7:
 168 00d0 08BD     		pop	{r3, pc}
 169              	.L12:
 170 00d2 00BF     		.align	2
 171              	.L11:
 172 00d4 00000000 		.word	nextByte
 173 00d8 00000000 		.word	.LANCHOR0
 174 00dc 00000000 		.word	.LC0
 175 00e0 00000000 		.word	updateFlag
 176              		.cfi_endproc
 177              	.LFE64:
 178              		.size	byteReceived, .-byteReceived
 179              		.section	.text.printInstructions,"ax",%progbits
 180              		.align	2
 181              		.global	printInstructions
 182              		.thumb
 183              		.thumb_func
 184              		.type	printInstructions, %function
 185              	printInstructions:
 186              	.LFB65:
 147:main.c        ****         }
 148:main.c        ****     }
 149:main.c        **** }
 150:main.c        ****     
 151:main.c        **** void printInstructions(){
 187              		.loc 1 151 0
ARM GAS  C:\Users\egarr\AppData\Local\Temp\ccFcDPmm.s 			page 7


 188              		.cfi_startproc
 189              		@ args = 0, pretend = 0, frame = 0
 190              		@ frame_needed = 0, uses_anonymous_args = 0
 191 0000 08B5     		push	{r3, lr}
 192              		.cfi_def_cfa_offset 8
 193              		.cfi_offset 3, -8
 194              		.cfi_offset 14, -4
 152:main.c        ****     UART_PutString("\n\r Please type a command. A command will look similar to the examples below.\
 195              		.loc 1 152 0
 196 0002 1248     		ldr	r0, .L15
 197 0004 FFF7FEFF 		bl	UART_PutString
 198              	.LVL8:
 153:main.c        ****     UART_PutString("\n\r W # XX A Your message here");
 199              		.loc 1 153 0
 200 0008 1148     		ldr	r0, .L15+4
 201 000a FFF7FEFF 		bl	UART_PutString
 202              	.LVL9:
 154:main.c        ****     UART_PutString("\n\r A # XX H NN\n\r");
 203              		.loc 1 154 0
 204 000e 1148     		ldr	r0, .L15+8
 205 0010 FFF7FEFF 		bl	UART_PutString
 206              	.LVL10:
 155:main.c        ****     UART_PutString("\n\r W for write or R for Read");
 207              		.loc 1 155 0
 208 0014 1048     		ldr	r0, .L15+12
 209 0016 FFF7FEFF 		bl	UART_PutString
 210              	.LVL11:
 156:main.c        ****     UART_PutString("\n\r # determines which EEPROM");
 211              		.loc 1 156 0
 212 001a 1048     		ldr	r0, .L15+16
 213 001c FFF7FEFF 		bl	UART_PutString
 214              	.LVL12:
 157:main.c        ****     UART_PutString("\n\r XX determines memory location (in hex)");
 215              		.loc 1 157 0
 216 0020 0F48     		ldr	r0, .L15+20
 217 0022 FFF7FEFF 		bl	UART_PutString
 218              	.LVL13:
 158:main.c        ****     UART_PutString("\n\r A for ASCII or H for ASCII encoded hex bytes");
 219              		.loc 1 158 0
 220 0026 0F48     		ldr	r0, .L15+24
 221 0028 FFF7FEFF 		bl	UART_PutString
 222              	.LVL14:
 159:main.c        ****     UART_PutString("\n\r NN for READ commands determines number of bytes (in hex) to be read\n\r");
 223              		.loc 1 159 0
 224 002c 0E48     		ldr	r0, .L15+28
 225 002e FFF7FEFF 		bl	UART_PutString
 226              	.LVL15:
 160:main.c        ****     UART_PutString("\n\r Examples given below\n\r");
 227              		.loc 1 160 0
 228 0032 0E48     		ldr	r0, .L15+32
 229 0034 FFF7FEFF 		bl	UART_PutString
 230              	.LVL16:
 161:main.c        ****     UART_PutString("\n\r W 1 31 A Mary had a little lamb");
 231              		.loc 1 161 0
 232 0038 0D48     		ldr	r0, .L15+36
 233 003a FFF7FEFF 		bl	UART_PutString
 234              	.LVL17:
ARM GAS  C:\Users\egarr\AppData\Local\Temp\ccFcDPmm.s 			page 8


 162:main.c        ****     UART_PutString("\n\r R 2 31 H 34\n\r");
 235              		.loc 1 162 0
 236 003e 0D48     		ldr	r0, .L15+40
 237 0040 FFF7FEFF 		bl	UART_PutString
 238              	.LVL18:
 163:main.c        ****     UART_PutString("\n\r>");
 239              		.loc 1 163 0
 240 0044 0C48     		ldr	r0, .L15+44
 241 0046 FFF7FEFF 		bl	UART_PutString
 242              	.LVL19:
 243 004a 08BD     		pop	{r3, pc}
 244              	.L16:
 245              		.align	2
 246              	.L15:
 247 004c 04000000 		.word	.LC1
 248 0050 54000000 		.word	.LC2
 249 0054 74000000 		.word	.LC3
 250 0058 88000000 		.word	.LC4
 251 005c A8000000 		.word	.LC5
 252 0060 C8000000 		.word	.LC6
 253 0064 F4000000 		.word	.LC7
 254 0068 24010000 		.word	.LC8
 255 006c 70010000 		.word	.LC9
 256 0070 8C010000 		.word	.LC10
 257 0074 B0010000 		.word	.LC11
 258 0078 C4010000 		.word	.LC12
 259              		.cfi_endproc
 260              	.LFE65:
 261              		.size	printInstructions, .-printInstructions
 262              		.section	.text.parseInput,"ax",%progbits
 263              		.align	2
 264              		.global	parseInput
 265              		.thumb
 266              		.thumb_func
 267              		.type	parseInput, %function
 268              	parseInput:
 269              	.LFB66:
 164:main.c        **** }
 165:main.c        **** 
 166:main.c        **** void parseInput(){
 270              		.loc 1 166 0
 271              		.cfi_startproc
 272              		@ args = 0, pretend = 0, frame = 0
 273              		@ frame_needed = 0, uses_anonymous_args = 0
 274              		@ link register save eliminated.
 167:main.c        ****     if (holding[0] == 'W' || holding[0] == 'w'){
 275              		.loc 1 167 0
 276 0000 274B     		ldr	r3, .L24
 277 0002 93F85830 		ldrb	r3, [r3, #88]	@ zero_extendqisi2
 278 0006 572B     		cmp	r3, #87
 279 0008 01D0     		beq	.L18
 280              		.loc 1 167 0 is_stmt 0 discriminator 1
 281 000a 772B     		cmp	r3, #119
 282 000c 03D1     		bne	.L19
 283              	.L18:
 168:main.c        ****         directionRW = write;
 284              		.loc 1 168 0 is_stmt 1
ARM GAS  C:\Users\egarr\AppData\Local\Temp\ccFcDPmm.s 			page 9


 285 000e 0022     		movs	r2, #0
 286 0010 244B     		ldr	r3, .L24+4
 287 0012 1A70     		strb	r2, [r3]
 288 0014 06E0     		b	.L20
 289              	.L19:
 169:main.c        ****     }
 170:main.c        ****     else if(holding[0] == 'R' || holding[0] == 'r'){
 290              		.loc 1 170 0
 291 0016 522B     		cmp	r3, #82
 292 0018 01D0     		beq	.L21
 293              		.loc 1 170 0 is_stmt 0 discriminator 1
 294 001a 722B     		cmp	r3, #114
 295 001c 02D1     		bne	.L20
 296              	.L21:
 171:main.c        ****         directionRW = read;
 297              		.loc 1 171 0 is_stmt 1
 298 001e 0122     		movs	r2, #1
 299 0020 204B     		ldr	r3, .L24+4
 300 0022 1A70     		strb	r2, [r3]
 301              	.L20:
 172:main.c        ****     }
 173:main.c        ****     
 174:main.c        ****     readNumBytes = (((holding[9] - '0') << 4) | (holding[10] - '0'));
 302              		.loc 1 174 0
 303 0024 1E4B     		ldr	r3, .L24
 304 0026 93F86120 		ldrb	r2, [r3, #97]	@ zero_extendqisi2
 305 002a A2F13001 		sub	r1, r2, #48
 306 002e 93F86220 		ldrb	r2, [r3, #98]	@ zero_extendqisi2
 307 0032 303A     		subs	r2, r2, #48
 308 0034 42EA0112 		orr	r2, r2, r1, lsl #4
 309 0038 1B49     		ldr	r1, .L24+8
 310 003a 0A70     		strb	r2, [r1]
 175:main.c        ****     
 176:main.c        ****     chipSelect = holding[2];
 311              		.loc 1 176 0
 312 003c 93F85A10 		ldrb	r1, [r3, #90]	@ zero_extendqisi2
 313 0040 1A4A     		ldr	r2, .L24+12
 314 0042 1170     		strb	r1, [r2]
 177:main.c        ****     
 178:main.c        ****     memLocation = (((holding[4] - '0') << 4) | (holding[5] - '0'));
 315              		.loc 1 178 0
 316 0044 93F85C20 		ldrb	r2, [r3, #92]	@ zero_extendqisi2
 317 0048 A2F13001 		sub	r1, r2, #48
 318 004c 93F85D20 		ldrb	r2, [r3, #93]	@ zero_extendqisi2
 319 0050 303A     		subs	r2, r2, #48
 320 0052 42EA0112 		orr	r2, r2, r1, lsl #4
 321 0056 92B2     		uxth	r2, r2
 322 0058 1549     		ldr	r1, .L24+16
 323 005a 0A80     		strh	r2, [r1]	@ movhi
 179:main.c        ****     writeData[0] = memLocation;
 324              		.loc 1 179 0
 325 005c 83F8FC20 		strb	r2, [r3, #252]
 180:main.c        ****     format = holding[7];
 326              		.loc 1 180 0
 327 0060 93F85F10 		ldrb	r1, [r3, #95]	@ zero_extendqisi2
 328 0064 134A     		ldr	r2, .L24+20
 329 0066 1170     		strb	r1, [r2]
ARM GAS  C:\Users\egarr\AppData\Local\Temp\ccFcDPmm.s 			page 10


 181:main.c        ****     
 182:main.c        ****     for (i = 9; holding[i] != 0x0D; i++){
 330              		.loc 1 182 0
 331 0068 0922     		movs	r2, #9
 332 006a 5A65     		str	r2, [r3, #84]
 333 006c 10E0     		b	.L22
 334              	.L23:
 183:main.c        ****         writeData[i-8] = holding[i];
 335              		.loc 1 183 0 discriminator 3
 336 006e A3F10801 		sub	r1, r3, #8
 337 0072 0B4A     		ldr	r2, .L24
 338 0074 1144     		add	r1, r1, r2
 339 0076 81F8FC00 		strb	r0, [r1, #252]
 184:main.c        ****         writeData[i-7] = 0x0D;
 340              		.loc 1 184 0 discriminator 3
 341 007a D91F     		subs	r1, r3, #7
 342 007c 1144     		add	r1, r1, r2
 343 007e 0D20     		movs	r0, #13
 344 0080 81F8FC00 		strb	r0, [r1, #252]
 185:main.c        ****         
 186:main.c        ****         writeNumBytes = i-8;
 345              		.loc 1 186 0 discriminator 3
 346 0084 A3F10800 		sub	r0, r3, #8
 347 0088 0B49     		ldr	r1, .L24+24
 348 008a 0870     		strb	r0, [r1]
 182:main.c        ****         writeData[i-8] = holding[i];
 349              		.loc 1 182 0 discriminator 3
 350 008c 0133     		adds	r3, r3, #1
 351 008e 5365     		str	r3, [r2, #84]
 352              	.L22:
 182:main.c        ****         writeData[i-8] = holding[i];
 353              		.loc 1 182 0 is_stmt 0 discriminator 1
 354 0090 034A     		ldr	r2, .L24
 355 0092 536D     		ldr	r3, [r2, #84]
 356 0094 1A44     		add	r2, r2, r3
 357 0096 92F85800 		ldrb	r0, [r2, #88]	@ zero_extendqisi2
 358 009a 0D28     		cmp	r0, #13
 359 009c E7D1     		bne	.L23
 187:main.c        ****     }
 188:main.c        ****     
 189:main.c        ****     
 190:main.c        **** }
 360              		.loc 1 190 0 is_stmt 1
 361 009e 7047     		bx	lr
 362              	.L25:
 363              		.align	2
 364              	.L24:
 365 00a0 00000000 		.word	.LANCHOR0
 366 00a4 00000000 		.word	directionRW
 367 00a8 00000000 		.word	readNumBytes
 368 00ac 00000000 		.word	chipSelect
 369 00b0 00000000 		.word	memLocation
 370 00b4 00000000 		.word	format
 371 00b8 00000000 		.word	writeNumBytes
 372              		.cfi_endproc
 373              	.LFE66:
 374              		.size	parseInput, .-parseInput
ARM GAS  C:\Users\egarr\AppData\Local\Temp\ccFcDPmm.s 			page 11


 375              		.section	.text.readWriteMem,"ax",%progbits
 376              		.align	2
 377              		.global	readWriteMem
 378              		.thumb
 379              		.thumb_func
 380              		.type	readWriteMem, %function
 381              	readWriteMem:
 382              	.LFB67:
 191:main.c        **** 
 192:main.c        **** 
 193:main.c        **** void readWriteMem(){
 383              		.loc 1 193 0
 384              		.cfi_startproc
 385              		@ args = 0, pretend = 0, frame = 0
 386              		@ frame_needed = 0, uses_anonymous_args = 0
 387 0000 08B5     		push	{r3, lr}
 388              		.cfi_def_cfa_offset 8
 389              		.cfi_offset 3, -8
 390              		.cfi_offset 14, -4
 194:main.c        ****     if(chipSelect == '1'){
 391              		.loc 1 194 0
 392 0002 314B     		ldr	r3, .L37
 393 0004 1B78     		ldrb	r3, [r3]	@ zero_extendqisi2
 394 0006 312B     		cmp	r3, #49
 395 0008 06D1     		bne	.L27
 195:main.c        ****         address = (group1Address | chip1Address);
 396              		.loc 1 195 0
 397 000a 304A     		ldr	r2, .L37+4
 398 000c 1178     		ldrb	r1, [r2]	@ zero_extendqisi2
 399 000e 5378     		ldrb	r3, [r2, #1]	@ zero_extendqisi2
 400 0010 0B43     		orrs	r3, r3, r1
 401 0012 2F4A     		ldr	r2, .L37+8
 402 0014 1370     		strb	r3, [r2]
 403 0016 05E0     		b	.L28
 404              	.L27:
 196:main.c        ****     }
 197:main.c        ****     
 198:main.c        ****     else{
 199:main.c        ****         address = (group1Address | chip2Address);
 405              		.loc 1 199 0
 406 0018 2C4A     		ldr	r2, .L37+4
 407 001a 1178     		ldrb	r1, [r2]	@ zero_extendqisi2
 408 001c 9378     		ldrb	r3, [r2, #2]	@ zero_extendqisi2
 409 001e 0B43     		orrs	r3, r3, r1
 410 0020 2B4A     		ldr	r2, .L37+8
 411 0022 1370     		strb	r3, [r2]
 412              	.L28:
 200:main.c        ****     }
 201:main.c        ****     
 202:main.c        ****     if(directionRW == write){
 413              		.loc 1 202 0
 414 0024 2B4B     		ldr	r3, .L37+12
 415 0026 1B78     		ldrb	r3, [r3]	@ zero_extendqisi2
 416 0028 83B9     		cbnz	r3, .L29
 203:main.c        ****         I2C_MasterWriteBuf(address, writeData, writeNumBytes, I2C_MODE_COMPLETE_XFER);
 417              		.loc 1 203 0
 418 002a 2B4A     		ldr	r2, .L37+16
ARM GAS  C:\Users\egarr\AppData\Local\Temp\ccFcDPmm.s 			page 12


 419 002c 1278     		ldrb	r2, [r2]	@ zero_extendqisi2
 420 002e 2B49     		ldr	r1, .L37+20
 421 0030 2748     		ldr	r0, .L37+8
 422 0032 0078     		ldrb	r0, [r0]	@ zero_extendqisi2
 423 0034 FFF7FEFF 		bl	I2C_MasterWriteBuf
 424              	.LVL20:
 425              	.L30:
 204:main.c        ****         while(!(I2C_MasterStatus() & I2C_MSTAT_WR_CMPLT));
 426              		.loc 1 204 0 discriminator 1
 427 0038 FFF7FEFF 		bl	I2C_MasterStatus
 428              	.LVL21:
 429 003c 10F0020F 		tst	r0, #2
 430 0040 FAD0     		beq	.L30
 205:main.c        ****         I2C_MasterClearStatus();
 431              		.loc 1 205 0
 432 0042 FFF7FEFF 		bl	I2C_MasterClearStatus
 433              	.LVL22:
 206:main.c        ****         CyDelay(5);
 434              		.loc 1 206 0
 435 0046 0520     		movs	r0, #5
 436 0048 FFF7FEFF 		bl	CyDelay
 437              	.LVL23:
 438              	.L29:
 207:main.c        ****     }
 208:main.c        ****     
 209:main.c        ****     if(directionRW == read){
 439              		.loc 1 209 0
 440 004c 214B     		ldr	r3, .L37+12
 441 004e 1B78     		ldrb	r3, [r3]	@ zero_extendqisi2
 442 0050 012B     		cmp	r3, #1
 443 0052 37D1     		bne	.L26
 210:main.c        ****         I2C_MasterWriteBuf(address, writeData, 1, I2C_MODE_COMPLETE_XFER);
 444              		.loc 1 210 0
 445 0054 0023     		movs	r3, #0
 446 0056 0122     		movs	r2, #1
 447 0058 2049     		ldr	r1, .L37+20
 448 005a 1D48     		ldr	r0, .L37+8
 449 005c 0078     		ldrb	r0, [r0]	@ zero_extendqisi2
 450 005e FFF7FEFF 		bl	I2C_MasterWriteBuf
 451              	.LVL24:
 452              	.L32:
 211:main.c        ****         while(!(I2C_MasterStatus() & I2C_MSTAT_WR_CMPLT));
 453              		.loc 1 211 0 discriminator 1
 454 0062 FFF7FEFF 		bl	I2C_MasterStatus
 455              	.LVL25:
 456 0066 10F0020F 		tst	r0, #2
 457 006a FAD0     		beq	.L32
 212:main.c        ****         I2C_MasterClearStatus();
 458              		.loc 1 212 0
 459 006c FFF7FEFF 		bl	I2C_MasterClearStatus
 460              	.LVL26:
 213:main.c        ****         CyDelay(5);
 461              		.loc 1 213 0
 462 0070 0520     		movs	r0, #5
 463 0072 FFF7FEFF 		bl	CyDelay
 464              	.LVL27:
 214:main.c        ****         
ARM GAS  C:\Users\egarr\AppData\Local\Temp\ccFcDPmm.s 			page 13


 215:main.c        ****         I2C_MasterReadBuf(address, readData, readNumBytes, I2C_MODE_COMPLETE_XFER);
 465              		.loc 1 215 0
 466 0076 0023     		movs	r3, #0
 467 0078 194A     		ldr	r2, .L37+24
 468 007a 1278     		ldrb	r2, [r2]	@ zero_extendqisi2
 469 007c 1949     		ldr	r1, .L37+28
 470 007e 1448     		ldr	r0, .L37+8
 471 0080 0078     		ldrb	r0, [r0]	@ zero_extendqisi2
 472 0082 FFF7FEFF 		bl	I2C_MasterReadBuf
 473              	.LVL28:
 474              	.L33:
 216:main.c        ****         while(!(I2C_MasterStatus() & I2C_MSTAT_RD_CMPLT));
 475              		.loc 1 216 0 discriminator 1
 476 0086 FFF7FEFF 		bl	I2C_MasterStatus
 477              	.LVL29:
 478 008a 10F0010F 		tst	r0, #1
 479 008e FAD0     		beq	.L33
 217:main.c        ****         I2C_MasterClearStatus();
 480              		.loc 1 217 0
 481 0090 FFF7FEFF 		bl	I2C_MasterClearStatus
 482              	.LVL30:
 218:main.c        ****         
 219:main.c        ****         for(i = 0; i < readNumBytes; i++){
 483              		.loc 1 219 0
 484 0094 0022     		movs	r2, #0
 485 0096 144B     		ldr	r3, .L37+32
 486 0098 5A65     		str	r2, [r3, #84]
 487 009a 07E0     		b	.L34
 488              	.L35:
 220:main.c        ****             UART_PutChar(readData[i]);
 489              		.loc 1 220 0 discriminator 3
 490 009c 114A     		ldr	r2, .L37+28
 491 009e D05C     		ldrb	r0, [r2, r3]	@ zero_extendqisi2
 492 00a0 FFF7FEFF 		bl	UART_PutChar
 493              	.LVL31:
 219:main.c        ****             UART_PutChar(readData[i]);
 494              		.loc 1 219 0 discriminator 3
 495 00a4 104A     		ldr	r2, .L37+32
 496 00a6 536D     		ldr	r3, [r2, #84]
 497 00a8 0133     		adds	r3, r3, #1
 498 00aa 5365     		str	r3, [r2, #84]
 499              	.L34:
 219:main.c        ****             UART_PutChar(readData[i]);
 500              		.loc 1 219 0 is_stmt 0 discriminator 1
 501 00ac 0C4B     		ldr	r3, .L37+24
 502 00ae 1A78     		ldrb	r2, [r3]	@ zero_extendqisi2
 503 00b0 0D4B     		ldr	r3, .L37+32
 504 00b2 5B6D     		ldr	r3, [r3, #84]
 505 00b4 9A42     		cmp	r2, r3
 506 00b6 F1DC     		bgt	.L35
 221:main.c        ****         }
 222:main.c        ****         UART_PutString(">");
 507              		.loc 1 222 0 is_stmt 1
 508 00b8 0C48     		ldr	r0, .L37+36
 509 00ba FFF7FEFF 		bl	UART_PutString
 510              	.LVL32:
 223:main.c        ****         //UART_PutString(holding);
ARM GAS  C:\Users\egarr\AppData\Local\Temp\ccFcDPmm.s 			page 14


 224:main.c        ****         //UART_PutString("\n");
 225:main.c        ****         updateFlag = 0;
 511              		.loc 1 225 0
 512 00be 0022     		movs	r2, #0
 513 00c0 0B4B     		ldr	r3, .L37+40
 514 00c2 1A60     		str	r2, [r3]
 515              	.L26:
 516 00c4 08BD     		pop	{r3, pc}
 517              	.L38:
 518 00c6 00BF     		.align	2
 519              	.L37:
 520 00c8 00000000 		.word	chipSelect
 521 00cc 00000000 		.word	.LANCHOR1
 522 00d0 00000000 		.word	address
 523 00d4 00000000 		.word	directionRW
 524 00d8 00000000 		.word	writeNumBytes
 525 00dc FC000000 		.word	.LANCHOR0+252
 526 00e0 00000000 		.word	readNumBytes
 527 00e4 00000000 		.word	readData
 528 00e8 00000000 		.word	.LANCHOR0
 529 00ec C8010000 		.word	.LC13
 530 00f0 00000000 		.word	updateFlag
 531              		.cfi_endproc
 532              	.LFE67:
 533              		.size	readWriteMem, .-readWriteMem
 534              		.section	.text.main,"ax",%progbits
 535              		.align	2
 536              		.global	main
 537              		.thumb
 538              		.thumb_func
 539              		.type	main, %function
 540              	main:
 541              	.LFB63:
  69:main.c        ****     
 542              		.loc 1 69 0
 543              		.cfi_startproc
 544              		@ Volatile: function does not return.
 545              		@ args = 0, pretend = 0, frame = 0
 546              		@ frame_needed = 0, uses_anonymous_args = 0
 547 0000 08B5     		push	{r3, lr}
 548              		.cfi_def_cfa_offset 8
 549              		.cfi_offset 3, -8
 550              		.cfi_offset 14, -4
  71:main.c        ****     I2C_Start();
 551              		.loc 1 71 0
 552 0002 FFF7FEFF 		bl	UART_Start
 553              	.LVL33:
  72:main.c        ****     //I2C_Enable();
 554              		.loc 1 72 0
 555 0006 FFF7FEFF 		bl	I2C_Start
 556              	.LVL34:
  75:main.c        ****     
 557              		.loc 1 75 0
 558 000a FFF7FEFF 		bl	printInstructions
 559              	.LVL35:
  77:main.c        ****     CyGlobalIntEnable; 
 560              		.loc 1 77 0
ARM GAS  C:\Users\egarr\AppData\Local\Temp\ccFcDPmm.s 			page 15


 561 000e 0848     		ldr	r0, .L43
 562 0010 FFF7FEFF 		bl	isr_1_StartEx
 563              	.LVL36:
  78:main.c        ****     
 564              		.loc 1 78 0
 565              		.syntax unified
 566              	@ 78 "main.c" 1
 567 0014 62B6     		CPSIE   i
 568              	@ 0 "" 2
 569              		.thumb
 570              		.syntax unified
 571              	.L40:
  82:main.c        ****             parseInput();
 572              		.loc 1 82 0
 573 0016 074B     		ldr	r3, .L43+4
 574 0018 1B68     		ldr	r3, [r3]
 575 001a 002B     		cmp	r3, #0
 576 001c FBD0     		beq	.L40
  83:main.c        ****             readWriteMem();
 577              		.loc 1 83 0
 578 001e FFF7FEFF 		bl	parseInput
 579              	.LVL37:
  84:main.c        **** 
 580              		.loc 1 84 0
 581 0022 FFF7FEFF 		bl	readWriteMem
 582              	.LVL38:
  87:main.c        ****         }
 583              		.loc 1 87 0
 584 0026 0022     		movs	r2, #0
 585 0028 024B     		ldr	r3, .L43+4
 586 002a 1A60     		str	r2, [r3]
 587 002c F3E7     		b	.L40
 588              	.L44:
 589 002e 00BF     		.align	2
 590              	.L43:
 591 0030 00000000 		.word	byteReceived
 592 0034 00000000 		.word	updateFlag
 593              		.cfi_endproc
 594              	.LFE63:
 595              		.size	main, .-main
 596              		.global	testR
 597              		.global	testW
 598              		.global	testAdd
 599              		.comm	nextByte,1,1
 600              		.global	empty
 601              		.global	input
 602              		.global	holding
 603              		.global	entry
 604              		.global	y
 605              		.global	x
 606              		.global	i
 607              		.comm	updateFlag,4,4
 608              		.global	addressR
 609              		.global	addressW
 610              		.comm	readData,79,4
 611              		.global	writeData
 612              		.comm	data,79,4
ARM GAS  C:\Users\egarr\AppData\Local\Temp\ccFcDPmm.s 			page 16


 613              		.comm	writeNumBytes,1,1
 614              		.comm	readNumBytes,1,1
 615              		.comm	format,1,1
 616              		.comm	address,1,1
 617              		.global	chip2Address
 618              		.global	chip1Address
 619              		.global	group1Address
 620              		.comm	chipSelect,1,1
 621              		.comm	directionRW,1,1
 622              		.comm	memLocation,2,2
 623              		.comm	currentMemLocation,1,1
 624              		.data
 625              		.align	2
 626              		.set	.LANCHOR1,. + 0
 627              		.type	group1Address, %object
 628              		.size	group1Address, 1
 629              	group1Address:
 630 0000 50       		.byte	80
 631              		.type	chip1Address, %object
 632              		.size	chip1Address, 1
 633              	chip1Address:
 634 0001 06       		.byte	6
 635              		.type	chip2Address, %object
 636              		.size	chip2Address, 1
 637              	chip2Address:
 638 0002 04       		.byte	4
 639 0003 00       		.space	1
 640              		.type	testR, %object
 641              		.size	testR, 4
 642              	testR:
 643 0004 01       		.byte	1
 644 0005 02       		.byte	2
 645 0006 03       		.byte	3
 646 0007 04       		.byte	4
 647              		.type	testW, %object
 648              		.size	testW, 5
 649              	testW:
 650 0008 00       		.byte	0
 651 0009 30       		.byte	48
 652 000a 31       		.byte	49
 653 000b 32       		.byte	50
 654 000c 33       		.byte	51
 655              		.type	addressR, %object
 656              		.size	addressR, 1
 657              	addressR:
 658 000d 56       		.byte	86
 659              		.type	addressW, %object
 660              		.size	addressW, 1
 661              	addressW:
 662 000e 56       		.byte	86
 663              		.section	.rodata.str1.4,"aMS",%progbits,1
 664              		.align	2
 665              	.LC0:
 666 0000 0A00     		.ascii	"\012\000"
 667 0002 0000     		.space	2
 668              	.LC1:
 669 0004 0A0D2050 		.ascii	"\012\015 Please type a command. A command will look"
ARM GAS  C:\Users\egarr\AppData\Local\Temp\ccFcDPmm.s 			page 17


 669      6C656173 
 669      65207479 
 669      70652061 
 669      20636F6D 
 670 0031 2073696D 		.ascii	" similar to the examples below.\012\015\000"
 670      696C6172 
 670      20746F20 
 670      74686520 
 670      6578616D 
 671 0053 00       		.space	1
 672              	.LC2:
 673 0054 0A0D2057 		.ascii	"\012\015 W # XX A Your message here\000"
 673      20232058 
 673      58204120 
 673      596F7572 
 673      206D6573 
 674 0072 0000     		.space	2
 675              	.LC3:
 676 0074 0A0D2041 		.ascii	"\012\015 A # XX H NN\012\015\000"
 676      20232058 
 676      58204820 
 676      4E4E0A0D 
 676      00
 677 0085 000000   		.space	3
 678              	.LC4:
 679 0088 0A0D2057 		.ascii	"\012\015 W for write or R for Read\000"
 679      20666F72 
 679      20777269 
 679      7465206F 
 679      72205220 
 680 00a5 000000   		.space	3
 681              	.LC5:
 682 00a8 0A0D2023 		.ascii	"\012\015 # determines which EEPROM\000"
 682      20646574 
 682      65726D69 
 682      6E657320 
 682      77686963 
 683 00c5 000000   		.space	3
 684              	.LC6:
 685 00c8 0A0D2058 		.ascii	"\012\015 XX determines memory location (in hex)\000"
 685      58206465 
 685      7465726D 
 685      696E6573 
 685      206D656D 
 686 00f2 0000     		.space	2
 687              	.LC7:
 688 00f4 0A0D2041 		.ascii	"\012\015 A for ASCII or H for ASCII encoded hex byt"
 688      20666F72 
 688      20415343 
 688      4949206F 
 688      72204820 
 689 0121 657300   		.ascii	"es\000"
 690              	.LC8:
 691 0124 0A0D204E 		.ascii	"\012\015 NN for READ commands determines number of "
 691      4E20666F 
 691      72205245 
 691      41442063 
ARM GAS  C:\Users\egarr\AppData\Local\Temp\ccFcDPmm.s 			page 18


 691      6F6D6D61 
 692 0151 62797465 		.ascii	"bytes (in hex) to be read\012\015\000"
 692      73202869 
 692      6E206865 
 692      78292074 
 692      6F206265 
 693 016d 000000   		.space	3
 694              	.LC9:
 695 0170 0A0D2045 		.ascii	"\012\015 Examples given below\012\015\000"
 695      78616D70 
 695      6C657320 
 695      67697665 
 695      6E206265 
 696 018a 0000     		.space	2
 697              	.LC10:
 698 018c 0A0D2057 		.ascii	"\012\015 W 1 31 A Mary had a little lamb\000"
 698      20312033 
 698      31204120 
 698      4D617279 
 698      20686164 
 699 01af 00       		.space	1
 700              	.LC11:
 701 01b0 0A0D2052 		.ascii	"\012\015 R 2 31 H 34\012\015\000"
 701      20322033 
 701      31204820 
 701      33340A0D 
 701      00
 702 01c1 000000   		.space	3
 703              	.LC12:
 704 01c4 0A0D3E00 		.ascii	"\012\015>\000"
 705              	.LC13:
 706 01c8 3E00     		.ascii	">\000"
 707              		.bss
 708              		.align	2
 709              		.set	.LANCHOR0,. + 0
 710              		.type	x, %object
 711              		.size	x, 4
 712              	x:
 713 0000 00000000 		.space	4
 714              		.type	input, %object
 715              		.size	input, 79
 716              	input:
 717 0004 00000000 		.space	79
 717      00000000 
 717      00000000 
 717      00000000 
 717      00000000 
 718 0053 00       		.space	1
 719              		.type	i, %object
 720              		.size	i, 4
 721              	i:
 722 0054 00000000 		.space	4
 723              		.type	holding, %object
 724              		.size	holding, 79
 725              	holding:
 726 0058 00000000 		.space	79
 726      00000000 
ARM GAS  C:\Users\egarr\AppData\Local\Temp\ccFcDPmm.s 			page 19


 726      00000000 
 726      00000000 
 726      00000000 
 727 00a7 00       		.space	1
 728              		.type	y, %object
 729              		.size	y, 4
 730              	y:
 731 00a8 00000000 		.space	4
 732              		.type	empty, %object
 733              		.size	empty, 79
 734              	empty:
 735 00ac 00000000 		.space	79
 735      00000000 
 735      00000000 
 735      00000000 
 735      00000000 
 736 00fb 00       		.space	1
 737              		.type	writeData, %object
 738              		.size	writeData, 79
 739              	writeData:
 740 00fc 00000000 		.space	79
 740      00000000 
 740      00000000 
 740      00000000 
 740      00000000 
 741 014b 00       		.space	1
 742              		.type	testAdd, %object
 743              		.size	testAdd, 1
 744              	testAdd:
 745 014c 00       		.space	1
 746 014d 000000   		.space	3
 747              		.type	entry, %object
 748              		.size	entry, 4
 749              	entry:
 750 0150 00000000 		.space	4
 751              		.text
 752              	.Letext0:
 753              		.file 2 "c:\\program files (x86)\\cypress\\psoc creator\\4.1\\psoc creator\\import\\gnu\\arm\\5.4.
 754              		.file 3 "c:\\program files (x86)\\cypress\\psoc creator\\4.1\\psoc creator\\import\\gnu\\arm\\5.4.
 755              		.file 4 "Generated_Source\\PSoC5/cytypes.h"
 756              		.file 5 "Generated_Source\\PSoC5/core_cm3.h"
 757              		.file 6 "Generated_Source\\PSoC5/UART.h"
 758              		.file 7 "Generated_Source\\PSoC5/I2C.h"
 759              		.file 8 "Generated_Source\\PSoC5/CyLib.h"
 760              		.file 9 "Generated_Source\\PSoC5/isr_1.h"